Certificate:
    Data:
        Version: 3 (0x2)
        Serial Number: 2 (0x2)
    Signature Algorithm: sha1WithRSAEncryption
        Issuer: DC=org, DC=simple, O=Simple Inc, OU=Simple Signing CA, CN=Simple Signing CA
        Validity
            Not Before: Dec  2 23:43:32 2023 GMT
            Not After : Dec  1 23:43:32 2025 GMT
        Subject: DC=org, DC=simple, O=Simple Inc, CN=www.simple.org
        Subject Public Key Info:
            Public Key Algorithm: rsaEncryption
                Public-Key: (2048 bit)
                Modulus:
                    00:d3:14:68:2f:1d:06:28:9d:d7:f6:32:44:f6:5e:
                    b2:58:32:20:dc:d5:55:6d:e2:f3:d5:2b:cc:a1:4d:
                    5c:bb:04:29:91:d0:fa:4b:d3:51:65:7c:bc:f0:77:
                    b1:fe:fa:ce:04:cc:39:a1:f1:e4:e7:f1:d7:17:15:
                    d0:61:68:51:c7:3b:00:45:d5:c7:cb:db:d9:62:9a:
                    0e:a5:e8:a5:ff:73:ed:2d:9c:d6:e4:41:1e:0d:7e:
                    16:ee:38:bf:cf:bf:05:a1:bb:14:a1:65:62:0f:ec:
                    6e:ca:99:c2:6e:62:72:27:96:c0:56:04:c5:5c:94:
                    f8:82:54:2e:bd:98:63:4f:c5:c2:eb:fc:63:0e:72:
                    d3:05:69:33:06:4f:eb:e7:aa:c7:5d:24:4c:29:9c:
                    ff:81:9e:2e:35:ae:ba:18:e4:27:e9:dd:1a:fb:7b:
                    e4:31:16:42:b5:8e:bb:a6:e8:49:71:f2:54:c8:40:
                    06:9b:5c:42:34:b3:85:31:46:c5:ef:3c:60:91:49:
                    9f:3e:dc:51:cf:71:c6:3b:34:72:20:22:75:3d:87:
                    b5:61:f8:97:8f:1d:11:ba:52:28:2d:c7:2b:69:18:
                    d8:64:3c:c6:89:07:0a:84:83:b5:9f:42:e5:10:17:
                    7e:c4:b6:f2:51:80:bf:a1:6b:b7:6c:a8:19:30:c1:
                    0d:d5
                Exponent: 65537 (0x10001)
        X509v3 extensions:
            X509v3 Key Usage: critical
                Digital Signature, Key Encipherment
            X509v3 Basic Constraints: 
                CA:FALSE
            X509v3 Extended Key Usage: 
                TLS Web Server Authentication, TLS Web Client Authentication
            X509v3 Subject Key Identifier: 
                27:1D:B7:1B:C3:98:25:2F:79:8D:50:78:B0:B7:4D:33:D7:14:1D:42
            X509v3 Authority Key Identifier: 
                keyid:18:DA:92:3F:13:BE:31:0B:A9:49:02:BE:F4:BF:2C:3F:5B:71:8F:77

            X509v3 Subject Alternative Name: 
                DNS:yourdomain.tld
    Signature Algorithm: sha1WithRSAEncryption
         83:4e:14:9b:f5:7e:ce:86:ad:cf:45:ea:be:2a:01:a4:d4:6b:
         3d:fb:a2:c3:f6:5b:4b:43:61:0a:d2:79:68:12:f3:69:bb:69:
         52:83:dd:5c:91:2c:a6:3e:38:a4:7f:29:a0:39:31:60:4b:2b:
         11:c9:ae:87:4b:52:73:2e:95:f5:25:90:17:78:22:c5:50:1e:
         63:77:06:78:43:b7:8f:04:f8:50:c7:45:64:d8:f9:17:ad:a9:
         16:eb:5d:94:95:28:76:6a:06:3e:58:88:63:e8:75:41:a0:bb:
         4e:3c:71:cf:e6:e4:64:24:bf:ad:18:67:82:36:74:9f:7d:40:
         e9:a1:90:e2:0d:18:b4:b7:ca:c0:87:d5:24:fe:6a:4d:03:2f:
         68:f2:4c:b9:a2:71:51:08:cd:69:65:41:7f:79:4d:f6:30:19:
         ae:49:7c:43:77:48:0e:2d:04:5c:5b:95:40:f2:d6:fc:05:a2:
         1d:20:67:e3:4a:30:8b:30:e0:c8:23:71:58:aa:e4:91:1b:f8:
         00:57:e7:86:cb:2a:02:05:ff:a9:1a:67:0d:4e:47:39:b9:f0:
         7d:66:09:6c:f2:cd:80:66:ce:ec:b9:ac:ac:dd:3d:0b:ee:23:
         b2:a9:68:c8:50:00:1d:c7:48:30:fb:05:dd:ee:38:ab:49:fc:
         ab:96:d2:61
-----BEGIN CERTIFICATE-----
MIID6TCCAtGgAwIBAgIBAjANBgkqhkiG9w0BAQUFADB6MRMwEQYKCZImiZPyLGQB
GRYDb3JnMRYwFAYKCZImiZPyLGQBGRYGc2ltcGxlMRMwEQYDVQQKDApTaW1wbGUg
SW5jMRowGAYDVQQLDBFTaW1wbGUgU2lnbmluZyBDQTEaMBgGA1UEAwwRU2ltcGxl
IFNpZ25pbmcgQ0EwHhcNMjMxMjAyMjM0MzMyWhcNMjUxMjAxMjM0MzMyWjBbMRMw
EQYKCZImiZPyLGQBGRYDb3JnMRYwFAYKCZImiZPyLGQBGRYGc2ltcGxlMRMwEQYD
VQQKDApTaW1wbGUgSW5jMRcwFQYDVQQDDA53d3cuc2ltcGxlLm9yZzCCASIwDQYJ
KoZIhvcNAQEBBQADggEPADCCAQoCggEBANMUaC8dBiid1/YyRPZeslgyINzVVW3i
89UrzKFNXLsEKZHQ+kvTUWV8vPB3sf76zgTMOaHx5Ofx1xcV0GFoUcc7AEXVx8vb
2WKaDqXopf9z7S2c1uRBHg1+Fu44v8+/BaG7FKFlYg/sbsqZwm5icieWwFYExVyU
+IJULr2YY0/Fwuv8Yw5y0wVpMwZP6+eqx10kTCmc/4GeLjWuuhjkJ+ndGvt75DEW
QrWOu6boSXHyVMhABptcQjSzhTFGxe88YJFJnz7cUc9xxjs0ciAidT2HtWH4l48d
EbpSKC3HK2kY2GQ8xokHCoSDtZ9C5RAXfsS28lGAv6Frt2yoGTDBDdUCAwEAAaOB
mDCBlTAOBgNVHQ8BAf8EBAMCBaAwCQYDVR0TBAIwADAdBgNVHSUEFjAUBggrBgEF
BQcDAQYIKwYBBQUHAwIwHQYDVR0OBBYEFCcdtxvDmCUveY1QeLC3TTPXFB1CMB8G
A1UdIwQYMBaAFBjakj8TvjELqUkCvvS/LD9bcY93MBkGA1UdEQQSMBCCDnlvdXJk
b21haW4udGxkMA0GCSqGSIb3DQEBBQUAA4IBAQCDThSb9X7Ohq3PReq+KgGk1Gs9
+6LD9ltLQ2EK0nloEvNpu2lSg91ckSymPjikfymgOTFgSysRya6HS1JzLpX1JZAX
eCLFUB5jdwZ4Q7ePBPhQx0Vk2PkXrakW612UlSh2agY+WIhj6HVBoLtOPHHP5uRk
JL+tGGeCNnSffUDpoZDiDRi0t8rAh9Uk/mpNAy9o8ky5onFRCM1pZUF/eU32MBmu
SXxDd0gOLQRcW5VA8tb8BaIdIGfjSjCLMODII3FYquSRG/gAV+eGyyoCBf+pGmcN
Tkc5ufB9Zgls8s2AZs7suays3T0L7iOyqWjIUAAdx0gw+wXd7jirSfyrltJh
-----END CERTIFICATE-----
