-----BEGIN ENCRYPTED PRIVATE KEY-----
MIIFHzBJBgkqhkiG9w0BBQ0wPDAbBgkqhkiG9w0BBQwwDgQI1nymVI0U5uUCAggA
MB0GCWCGSAFlAwQBKgQQvjYW3opee6tmrWW+uyn7FASCBNBL5bb2wiysdVmPR5nN
hS7/WedBJbY8s3IFbSc4ZUUhM/0/3Us6zpWbTqyICoryVkhAA9G8xAPpTy6Z//L0
ikEa9gAX+/dER8EEKNFvs5luYwKQSe7z9+oJJCOZg2bydm1j9FgyGoiqHRlmi80A
gJHH9RwfY53BooQ41iZmufjndHjK/ilS0FrlFSMGAvgy2D4fAVtTGnpyGmE0CBt/
2f1znFbm6SRwAHp3O6y2Kesu4DqrNAVa1+auK4HStnIFnTLXGlpsHV4yrMj0vjEQ
AybcqS0t7qGvhlB62hjehWLKHSgDQUDQEj73uObfhlRTr8gDI3DwPVU2MllkD2R5
0Kf86Pb3Jg4iiyE+dD130Z8/OK3n0MGVxgMAopAq0u9Y+gEidw8uQw0gEVA3k5Vq
+VLfaiWMLBGGLpAJJLVJo8G7cXw1jjnkSwdgivXwyNFIl2gTbqfpqzNdsVRDaspI
NBKAvZ9bqvsQqqFYE7FA2f8WQ88HHzXhyy/nWFXZTJsUnLFreRH5tOa9vzRxM1My
gn89jQFcIjB6LF6Jj5KsALnEdWY/GjnwrgOO5Gn2A8jlWgTMEPxl6/1wD0kSDzlU
8HuSNGegykrGodNpr8O9oHf82NxpCj/uUjk8hdckLlYQIJIowg/YiQY1IAHOTND0
i3HmqIXnlEgzeYY4miT34p7OPYrzasbn4lTrt0ea1fMdSoQb9qwC3+BKq9LwAgwQ
Hk6oAakFRmnPO3lv1Ojhk3DZrAyEN2Ss084n02HXmJCyVuxlN15M42FPqmxJWPb5
DodCHUf/EKlivdSCmdTi7JwCmT3O4xD32hdmgbFnzZpQhNONmVJx3pB2DpPUSvm2
SdyaVDtDO31b2tdkBhhhrHEq4rXo9DYnPsjjPn2QTo9HYBPwSFrGgznI9kZarZT5
bGO9Sv924KkhtQVpsCOUjbLkGWp8W1p/VOTnMGWZDzMOFxgA758EPjhKLReTcZIg
idQqTArbqG5PqpT9/lc6mLwBg5kAkhoxgafSjfoxgAdfQOzJYod2XaxP2eNBvwbd
lu3VGAr3PfDrcSzYe+rc4D8mvmO/fQYf+u2DuRfmRrBrP7OEGwhl3iJqUhmmG/X5
ulPHES7jYb89Xna+LNALhaEelkWahQW1MVRHkpr+fO0FzEV6XrSoaZPM5i+ybz9U
du23As98D/RZaTyaTAkVFZLD1UrvD7Pyv6Obs24BKaj+vM2U5w1tKmJRtgiFWLV0
0vmQzT1en6PUVlqo+4QeNWXq0eQZUQgh3zBKr7kJOVQ/LxadQNSg2G5hoiC7kYIZ
26NsEi9VewcZF/8QGkKjPW1QBxPz8WAFBpt+Zmz5kmyQmkQVKXRHNcFsBVFVxXOV
ZSTsu9eaK0GyXyf9TsIhQzCzbgHY5X3pYSrprIgIz6F8Gb5gGnajIPGfjEvrf0j/
gOgTRNtGbdnAkJWTO2zpsAuk0+LPYd3iOoCnRVsQk4Yj0etcYSIHF/7L8StPVrI1
iG8/SpWiViOclma7Lwfiez3fqK/daey08W1iu2TmQ0Q3QSRQPwWHOFwzHF9NkuRU
SDOtXHmy1HACIgFc+Cg7JoEy5HfCyocaVAlQ6esbBgXVtNgUZYyf8U0f/7oDmZ7f
QdXqZBtwOrouUwePzUxsNNSmhA==
-----END ENCRYPTED PRIVATE KEY-----
Certificate:
    Data:
        Version: 3 (0x2)
        Serial Number: 1 (0x1)
    Signature Algorithm: sha1WithRSAEncryption
        Issuer: DC=org, DC=simple, O=Simple Inc, OU=Simple Signing CA, CN=Simple Signing CA
        Validity
            Not Before: Dec  2 23:14:25 2023 GMT
            Not After : Dec  1 23:14:25 2025 GMT
        Subject: DC=org, DC=simple, O=Simple Inc, CN=Fred Flintstone
        Subject Public Key Info:
            Public Key Algorithm: rsaEncryption
                Public-Key: (2048 bit)
                Modulus:
                    00:de:3f:19:fd:61:95:52:19:42:14:26:68:5f:bd:
                    8d:20:63:bc:34:d1:3e:7f:e0:ae:51:cf:7a:09:63:
                    80:3b:c5:70:21:ce:1b:d0:55:36:b1:3b:2b:85:e1:
                    ee:a4:5b:65:b8:e6:70:2c:29:14:6c:4c:d0:7e:60:
                    ee:d8:15:48:da:e6:e6:77:95:30:dc:81:10:c7:fc:
                    59:0d:ed:01:6f:58:09:53:7a:f4:ce:97:81:13:55:
                    e7:75:bb:6d:ed:91:e2:c9:86:5c:0b:e8:ac:56:a0:
                    a7:e6:f3:b3:cc:f5:a3:e5:23:bd:9f:60:84:69:9a:
                    cd:4e:10:9b:d6:78:59:71:87:9b:78:96:9f:e4:7d:
                    43:5a:6e:81:4d:fa:b7:1a:90:ab:6d:a1:09:61:bb:
                    6d:67:3a:78:22:b4:02:bb:a7:f8:6a:bd:04:a0:8e:
                    b3:d1:29:e8:b7:93:cb:35:5f:5c:d1:75:11:ee:2e:
                    c6:90:58:f3:9d:9a:14:d9:cd:f9:cd:77:a3:04:12:
                    7a:a4:e0:3f:c1:a5:55:31:bc:54:53:fc:d2:3a:5e:
                    3c:29:f8:3a:8f:ed:99:26:17:cc:56:d2:02:4e:ab:
                    74:d5:35:31:c3:98:57:f2:fa:1b:b2:fc:11:89:5f:
                    5c:f6:c6:49:da:3d:11:8f:ac:19:b2:ae:ed:18:a6:
                    60:05
                Exponent: 65537 (0x10001)
        X509v3 extensions:
            X509v3 Key Usage: critical
                Digital Signature, Key Encipherment
            X509v3 Basic Constraints: 
                CA:FALSE
            X509v3 Extended Key Usage: 
                E-mail Protection, TLS Web Client Authentication
            X509v3 Subject Key Identifier: 
                A0:76:C8:83:1B:41:D2:E8:C9:9C:5B:B7:D9:8F:98:66:37:BD:0D:8B
            X509v3 Authority Key Identifier: 
                keyid:18:DA:92:3F:13:BE:31:0B:A9:49:02:BE:F4:BF:2C:3F:5B:71:8F:77

            X509v3 Subject Alternative Name: 
                email:fred@simple.org
    Signature Algorithm: sha1WithRSAEncryption
         28:42:24:7d:1c:30:55:ba:88:43:24:06:f3:34:12:84:0b:16:
         62:9c:b1:39:aa:06:de:1f:58:87:d8:8e:0c:7b:15:57:c0:36:
         19:9a:de:dd:66:2a:05:8c:91:14:e3:c3:e6:7e:27:42:9c:0a:
         2d:54:96:97:60:57:dd:65:c8:76:82:2c:8e:1c:ca:a5:a9:4c:
         b4:f7:a4:03:a6:68:32:fb:d5:74:12:83:b5:fd:2b:52:bf:5f:
         7d:dd:71:fe:3c:58:0e:73:b1:c3:b5:49:ec:46:80:d7:6b:49:
         db:48:97:a9:87:f2:72:55:27:2d:14:d9:f3:45:09:9b:53:84:
         ff:5f:69:bb:69:5b:77:88:55:f1:ed:80:43:27:30:c1:6f:09:
         79:0a:45:bb:76:d1:58:1a:06:bc:d0:7a:8a:7a:a0:58:7a:08:
         0e:6c:c1:1a:bf:b0:ae:4d:d1:8c:66:8c:8a:b0:b5:e6:f5:c0:
         4d:06:36:18:97:5f:00:2e:e3:c7:c5:ac:c0:d0:95:98:60:be:
         44:1e:10:f5:2a:f1:25:1e:3b:22:48:98:0c:37:2c:c4:88:0b:
         16:01:a4:5b:2d:33:2f:83:27:68:bf:f3:11:7d:aa:ff:02:58:
         6f:47:70:ba:0b:2f:5a:d1:a8:45:2c:7d:00:f4:9b:d7:87:a4:
         75:71:84:98
-----BEGIN CERTIFICATE-----
MIID6zCCAtOgAwIBAgIBATANBgkqhkiG9w0BAQUFADB6MRMwEQYKCZImiZPyLGQB
GRYDb3JnMRYwFAYKCZImiZPyLGQBGRYGc2ltcGxlMRMwEQYDVQQKDApTaW1wbGUg
SW5jMRowGAYDVQQLDBFTaW1wbGUgU2lnbmluZyBDQTEaMBgGA1UEAwwRU2ltcGxl
IFNpZ25pbmcgQ0EwHhcNMjMxMjAyMjMxNDI1WhcNMjUxMjAxMjMxNDI1WjBcMRMw
EQYKCZImiZPyLGQBGRYDb3JnMRYwFAYKCZImiZPyLGQBGRYGc2ltcGxlMRMwEQYD
VQQKDApTaW1wbGUgSW5jMRgwFgYDVQQDDA9GcmVkIEZsaW50c3RvbmUwggEiMA0G
CSqGSIb3DQEBAQUAA4IBDwAwggEKAoIBAQDePxn9YZVSGUIUJmhfvY0gY7w00T5/
4K5Rz3oJY4A7xXAhzhvQVTaxOyuF4e6kW2W45nAsKRRsTNB+YO7YFUja5uZ3lTDc
gRDH/FkN7QFvWAlTevTOl4ETVed1u23tkeLJhlwL6KxWoKfm87PM9aPlI72fYIRp
ms1OEJvWeFlxh5t4lp/kfUNaboFN+rcakKttoQlhu21nOngitAK7p/hqvQSgjrPR
Kei3k8s1X1zRdRHuLsaQWPOdmhTZzfnNd6MEEnqk4D/BpVUxvFRT/NI6Xjwp+DqP
7ZkmF8xW0gJOq3TVNTHDmFfy+huy/BGJX1z2xknaPRGPrBmyru0YpmAFAgMBAAGj
gZkwgZYwDgYDVR0PAQH/BAQDAgWgMAkGA1UdEwQCMAAwHQYDVR0lBBYwFAYIKwYB
BQUHAwQGCCsGAQUFBwMCMB0GA1UdDgQWBBSgdsiDG0HS6MmcW7fZj5hmN70NizAf
BgNVHSMEGDAWgBQY2pI/E74xC6lJAr70vyw/W3GPdzAaBgNVHREEEzARgQ9mcmVk
QHNpbXBsZS5vcmcwDQYJKoZIhvcNAQEFBQADggEBAChCJH0cMFW6iEMkBvM0EoQL
FmKcsTmqBt4fWIfYjgx7FVfANhma3t1mKgWMkRTjw+Z+J0KcCi1UlpdgV91lyHaC
LI4cyqWpTLT3pAOmaDL71XQSg7X9K1K/X33dcf48WA5zscO1SexGgNdrSdtIl6mH
8nJVJy0U2fNFCZtThP9fabtpW3eIVfHtgEMnMMFvCXkKRbt20VgaBrzQeop6oFh6
CA5swRq/sK5N0YxmjIqwteb1wE0GNhiXXwAu48fFrMDQlZhgvkQeEPUq8SUeOyJI
mAw3LMSICxYBpFstMy+DJ2i/8xF9qv8CWG9HcLoLL1rRqEUsfQD0m9eHpHVxhJg=
-----END CERTIFICATE-----
