Certificate:
    Data:
        Version: 3 (0x2)
        Serial Number: 2 (0x2)
    Signature Algorithm: sha1WithRSAEncryption
        Issuer: DC=org, DC=simple, O=Simple Inc, OU=Simple Root CA, CN=Simple Root CA
        Validity
            Not Before: Dec  2 23:03:09 2023 GMT
            Not After : Dec  1 23:03:09 2033 GMT
        Subject: DC=org, DC=simple, O=Simple Inc, OU=Simple Signing CA, CN=Simple Signing CA
        Subject Public Key Info:
            Public Key Algorithm: rsaEncryption
                Public-Key: (2048 bit)
                Modulus:
                    00:c8:c3:36:9c:81:8b:ae:13:97:11:0c:bf:6c:f2:
                    07:07:55:40:be:93:6c:a9:87:88:f5:23:7a:e7:b8:
                    48:68:39:63:74:3e:a9:60:53:01:1b:e5:55:51:62:
                    15:2e:24:fe:79:43:89:d9:6b:a2:a6:67:38:93:5f:
                    d6:65:73:f0:a9:85:ce:56:2c:6b:4e:83:f5:4d:7f:
                    e5:26:d6:2e:30:74:ca:5a:83:52:65:6e:e3:48:2f:
                    a2:34:36:04:bb:4e:45:89:89:c8:3e:5f:4f:b9:b3:
                    b9:76:e3:80:8a:2a:cb:8b:65:c0:73:f8:0c:3c:81:
                    84:de:74:9d:72:e7:8e:09:81:61:9c:27:ab:3f:13:
                    e3:c7:f0:26:5f:4e:43:19:1a:8d:e8:f5:63:d2:c7:
                    0d:b6:96:50:e6:b2:b2:b7:b3:c1:cc:eb:03:6f:b3:
                    7d:4f:64:eb:02:35:3d:e1:fd:89:a8:fc:13:e7:df:
                    3f:61:cb:95:73:24:72:c8:36:5d:13:af:00:5e:57:
                    e6:12:ec:a5:2b:6c:f6:32:fa:5f:ce:06:63:09:7f:
                    0b:78:9d:44:0f:41:26:bf:23:5d:82:e6:df:1c:75:
                    2e:59:19:34:cc:b3:9b:e2:68:fa:63:00:a1:ba:76:
                    96:74:f6:2d:a4:d6:eb:7c:fe:3e:e6:22:be:dd:ac:
                    08:65
                Exponent: 65537 (0x10001)
        X509v3 extensions:
            X509v3 Key Usage: critical
                Certificate Sign, CRL Sign
            X509v3 Basic Constraints: critical
                CA:TRUE, pathlen:0
            X509v3 Subject Key Identifier: 
                18:DA:92:3F:13:BE:31:0B:A9:49:02:BE:F4:BF:2C:3F:5B:71:8F:77
            X509v3 Authority Key Identifier: 
                keyid:66:AF:7A:D1:32:14:03:63:CD:D9:7E:DB:5D:43:E6:C1:06:F8:61:92

    Signature Algorithm: sha1WithRSAEncryption
         55:1c:9d:e4:31:d8:d4:f5:c4:d5:a9:84:2e:1c:62:7e:08:bb:
         3d:85:81:e4:3f:49:5b:ab:cd:1a:7d:ee:8c:82:95:25:6a:57:
         e5:28:25:8c:5f:bf:4a:78:cf:07:4a:c4:05:71:56:56:bb:b3:
         17:85:69:8c:6f:15:11:5d:58:40:46:72:a2:67:75:7f:2c:cf:
         72:58:ba:8c:e1:af:c2:ac:6a:2c:76:c1:56:8d:2e:ee:cb:66:
         d8:08:bc:61:c1:e3:7a:56:4d:50:3d:ed:da:c9:67:dc:c6:bb:
         82:9e:67:66:d8:82:6b:5c:d4:c5:35:97:df:2e:1e:71:6e:75:
         0d:89:90:4f:6a:c1:10:0d:0f:40:25:10:87:b0:f6:3f:ac:cb:
         fe:29:96:03:9a:e3:94:dd:21:1a:cd:2f:fc:98:c0:47:70:67:
         db:49:61:8f:ec:83:48:b4:7a:7a:d9:59:09:40:07:0b:b8:ef:
         9a:1c:08:ef:51:fe:23:ce:3e:a9:cb:01:f9:d2:94:94:0f:93:
         ae:e1:c2:ce:73:34:b5:21:8c:ff:ee:c8:40:60:f8:7e:a7:11:
         82:fa:ac:29:33:f0:54:d2:4b:a3:1f:7c:b8:3b:4f:7d:20:88:
         62:ec:01:76:94:1a:80:02:41:35:8a:d7:5f:ed:95:e7:1a:a2:
         ec:33:de:a7
-----BEGIN CERTIFICATE-----
MIIDzzCCAregAwIBAgIBAjANBgkqhkiG9w0BAQUFADB0MRMwEQYKCZImiZPyLGQB
GRYDb3JnMRYwFAYKCZImiZPyLGQBGRYGc2ltcGxlMRMwEQYDVQQKDApTaW1wbGUg
SW5jMRcwFQYDVQQLDA5TaW1wbGUgUm9vdCBDQTEXMBUGA1UEAwwOU2ltcGxlIFJv
b3QgQ0EwHhcNMjMxMjAyMjMwMzA5WhcNMzMxMjAxMjMwMzA5WjB6MRMwEQYKCZIm
iZPyLGQBGRYDb3JnMRYwFAYKCZImiZPyLGQBGRYGc2ltcGxlMRMwEQYDVQQKDApT
aW1wbGUgSW5jMRowGAYDVQQLDBFTaW1wbGUgU2lnbmluZyBDQTEaMBgGA1UEAwwR
U2ltcGxlIFNpZ25pbmcgQ0EwggEiMA0GCSqGSIb3DQEBAQUAA4IBDwAwggEKAoIB
AQDIwzacgYuuE5cRDL9s8gcHVUC+k2yph4j1I3rnuEhoOWN0PqlgUwEb5VVRYhUu
JP55Q4nZa6KmZziTX9Zlc/Cphc5WLGtOg/VNf+Um1i4wdMpag1JlbuNIL6I0NgS7
TkWJicg+X0+5s7l244CKKsuLZcBz+Aw8gYTedJ1y544JgWGcJ6s/E+PH8CZfTkMZ
Go3o9WPSxw22llDmsrK3s8HM6wNvs31PZOsCNT3h/Ymo/BPn3z9hy5VzJHLINl0T
rwBeV+YS7KUrbPYy+l/OBmMJfwt4nUQPQSa/I12C5t8cdS5ZGTTMs5viaPpjAKG6
dpZ09i2k1ut8/j7mIr7drAhlAgMBAAGjZjBkMA4GA1UdDwEB/wQEAwIBBjASBgNV
HRMBAf8ECDAGAQH/AgEAMB0GA1UdDgQWBBQY2pI/E74xC6lJAr70vyw/W3GPdzAf
BgNVHSMEGDAWgBRmr3rRMhQDY83ZfttdQ+bBBvhhkjANBgkqhkiG9w0BAQUFAAOC
AQEAVRyd5DHY1PXE1amELhxifgi7PYWB5D9JW6vNGn3ujIKVJWpX5SgljF+/SnjP
B0rEBXFWVruzF4VpjG8VEV1YQEZyomd1fyzPcli6jOGvwqxqLHbBVo0u7stm2Ai8
YcHjelZNUD3t2sln3Ma7gp5nZtiCa1zUxTWX3y4ecW51DYmQT2rBEA0PQCUQh7D2
P6zL/imWA5rjlN0hGs0v/JjAR3Bn20lhj+yDSLR6etlZCUAHC7jvmhwI71H+I84+
qcsB+dKUlA+TruHCznM0tSGM/+7IQGD4fqcRgvqsKTPwVNJLox98uDtPfSCIYuwB
dpQagAJBNYrXX+2V5xqi7DPepw==
-----END CERTIFICATE-----
Certificate:
    Data:
        Version: 3 (0x2)
        Serial Number: 1 (0x1)
    Signature Algorithm: sha1WithRSAEncryption
        Issuer: DC=org, DC=simple, O=Simple Inc, OU=Simple Root CA, CN=Simple Root CA
        Validity
            Not Before: Dec  2 22:49:53 2023 GMT
            Not After : Dec  1 22:49:53 2033 GMT
        Subject: DC=org, DC=simple, O=Simple Inc, OU=Simple Root CA, CN=Simple Root CA
        Subject Public Key Info:
            Public Key Algorithm: rsaEncryption
                Public-Key: (2048 bit)
                Modulus:
                    00:c9:44:01:6a:fe:af:7c:0e:d9:99:4e:29:b4:1f:
                    4e:37:d2:44:3b:ed:e6:85:16:1c:ed:95:92:c3:f7:
                    a3:fc:2e:e0:20:31:b3:8f:44:0f:eb:18:34:a4:91:
                    5a:91:0e:18:87:1f:20:2e:74:d2:ec:92:89:4e:f8:
                    6b:1a:cc:3c:7b:65:02:82:33:7b:16:d6:a5:80:1d:
                    dc:e4:de:fc:11:30:89:0d:0a:cc:bf:82:9d:3a:17:
                    e8:af:ca:0d:82:a7:ee:34:61:25:a6:6a:8f:26:95:
                    d1:d3:66:26:d1:9b:7d:0e:ab:31:43:e3:03:d4:ab:
                    f5:21:e4:b9:6d:42:17:ab:fb:e0:9a:b4:4a:95:54:
                    6b:1d:33:0e:d1:10:2a:b6:26:56:b9:cd:e1:f7:e7:
                    a8:76:e9:ff:65:c5:d3:91:d5:4d:64:0d:a1:a0:42:
                    61:b7:dd:3e:06:4f:a3:44:4a:5b:a0:73:16:58:c4:
                    79:ad:08:44:fc:66:7b:4d:80:27:13:ef:e4:76:43:
                    15:03:8f:ee:47:b9:3f:0a:65:33:9f:94:78:78:94:
                    90:85:ac:fe:88:65:5b:34:33:9e:c7:25:a7:2b:26:
                    e7:59:d3:3a:86:9a:0e:26:60:fd:3b:0b:c4:7d:75:
                    49:ca:65:74:50:91:16:ae:bd:0f:22:27:ba:2a:61:
                    84:31
                Exponent: 65537 (0x10001)
        X509v3 extensions:
            X509v3 Key Usage: critical
                Certificate Sign, CRL Sign
            X509v3 Basic Constraints: critical
                CA:TRUE, pathlen:0
            X509v3 Subject Key Identifier: 
                66:AF:7A:D1:32:14:03:63:CD:D9:7E:DB:5D:43:E6:C1:06:F8:61:92
            X509v3 Authority Key Identifier: 
                keyid:66:AF:7A:D1:32:14:03:63:CD:D9:7E:DB:5D:43:E6:C1:06:F8:61:92

    Signature Algorithm: sha1WithRSAEncryption
         ba:3b:c9:e7:8d:d2:9e:da:18:3f:ac:9c:21:40:c8:6d:8b:63:
         4f:56:85:a1:af:e0:c4:3e:98:55:c3:6f:4f:78:d3:4c:0c:5e:
         87:84:60:05:e5:7e:c2:f9:02:2a:72:51:0b:a5:d2:da:c4:a7:
         c7:74:51:8b:12:8b:c8:cb:fd:00:e1:ca:98:5c:42:23:55:39:
         e9:c9:99:32:2a:02:a2:3f:37:00:df:af:f9:93:a7:d6:66:c7:
         0f:ea:df:6b:93:8d:ff:38:e9:ce:1e:41:84:70:64:e8:98:7b:
         d0:d5:b6:bc:20:3b:16:22:76:56:d8:cd:61:fa:43:da:d9:cc:
         45:df:ea:3a:5d:87:50:6a:8e:63:28:26:33:db:9a:0a:93:0b:
         e1:0c:84:9a:51:1c:79:ec:5e:79:d9:30:b6:09:51:11:ef:25:
         7e:90:dd:16:3e:c3:12:c1:8d:e7:90:ee:17:ad:e4:b2:43:cf:
         07:08:b4:09:99:8f:d1:6e:b8:14:d5:0a:dc:7a:b6:c6:4d:58:
         89:12:37:1a:0d:a2:81:eb:55:91:cd:32:33:8e:bc:e8:61:42:
         93:76:64:f8:ed:18:cf:7d:b3:be:cb:b7:2a:25:df:0b:3d:5c:
         e7:bc:d6:bb:92:8e:71:57:90:8e:ae:cf:3e:3a:ba:74:b3:05:
         d6:af:59:91
-----BEGIN CERTIFICATE-----
MIIDyTCCArGgAwIBAgIBATANBgkqhkiG9w0BAQUFADB0MRMwEQYKCZImiZPyLGQB
GRYDb3JnMRYwFAYKCZImiZPyLGQBGRYGc2ltcGxlMRMwEQYDVQQKDApTaW1wbGUg
SW5jMRcwFQYDVQQLDA5TaW1wbGUgUm9vdCBDQTEXMBUGA1UEAwwOU2ltcGxlIFJv
b3QgQ0EwHhcNMjMxMjAyMjI0OTUzWhcNMzMxMjAxMjI0OTUzWjB0MRMwEQYKCZIm
iZPyLGQBGRYDb3JnMRYwFAYKCZImiZPyLGQBGRYGc2ltcGxlMRMwEQYDVQQKDApT
aW1wbGUgSW5jMRcwFQYDVQQLDA5TaW1wbGUgUm9vdCBDQTEXMBUGA1UEAwwOU2lt
cGxlIFJvb3QgQ0EwggEiMA0GCSqGSIb3DQEBAQUAA4IBDwAwggEKAoIBAQDJRAFq
/q98DtmZTim0H0430kQ77eaFFhztlZLD96P8LuAgMbOPRA/rGDSkkVqRDhiHHyAu
dNLskolO+GsazDx7ZQKCM3sW1qWAHdzk3vwRMIkNCsy/gp06F+ivyg2Cp+40YSWm
ao8mldHTZibRm30OqzFD4wPUq/Uh5LltQher++CatEqVVGsdMw7RECq2Jla5zeH3
56h26f9lxdOR1U1kDaGgQmG33T4GT6NESlugcxZYxHmtCET8ZntNgCcT7+R2QxUD
j+5HuT8KZTOflHh4lJCFrP6IZVs0M57HJacrJudZ0zqGmg4mYP07C8R9dUnKZXRQ
kRauvQ8iJ7oqYYQxAgMBAAGjZjBkMA4GA1UdDwEB/wQEAwIBBjASBgNVHRMBAf8E
CDAGAQH/AgEAMB0GA1UdDgQWBBRmr3rRMhQDY83ZfttdQ+bBBvhhkjAfBgNVHSME
GDAWgBRmr3rRMhQDY83ZfttdQ+bBBvhhkjANBgkqhkiG9w0BAQUFAAOCAQEAujvJ
543SntoYP6ycIUDIbYtjT1aFoa/gxD6YVcNvT3jTTAxeh4RgBeV+wvkCKnJRC6XS
2sSnx3RRixKLyMv9AOHKmFxCI1U56cmZMioCoj83AN+v+ZOn1mbHD+rfa5ON/zjp
zh5BhHBk6Jh70NW2vCA7FiJ2VtjNYfpD2tnMRd/qOl2HUGqOYygmM9uaCpML4QyE
mlEceexeedkwtglREe8lfpDdFj7DEsGN55DuF63kskPPBwi0CZmP0W64FNUK3Hq2
xk1YiRI3Gg2igetVkc0yM4686GFCk3Zk+O0Yz32zvsu3KiXfCz1c57zWu5KOcVeQ
jq7PPjq6dLMF1q9ZkQ==
-----END CERTIFICATE-----
