Certificate:
    Data:
        Version: 3 (0x2)
        Serial Number: 2 (0x2)
    Signature Algorithm: sha1WithRSAEncryption
        Issuer: DC=org, DC=simple, O=Simple Inc, OU=Simple Root CA, CN=Simple Root CA
        Validity
            Not Before: Dec  2 23:03:09 2023 GMT
            Not After : Dec  1 23:03:09 2033 GMT
        Subject: DC=org, DC=simple, O=Simple Inc, OU=Simple Signing CA, CN=Simple Signing CA
        Subject Public Key Info:
            Public Key Algorithm: rsaEncryption
                Public-Key: (2048 bit)
                Modulus:
                    00:c8:c3:36:9c:81:8b:ae:13:97:11:0c:bf:6c:f2:
                    07:07:55:40:be:93:6c:a9:87:88:f5:23:7a:e7:b8:
                    48:68:39:63:74:3e:a9:60:53:01:1b:e5:55:51:62:
                    15:2e:24:fe:79:43:89:d9:6b:a2:a6:67:38:93:5f:
                    d6:65:73:f0:a9:85:ce:56:2c:6b:4e:83:f5:4d:7f:
                    e5:26:d6:2e:30:74:ca:5a:83:52:65:6e:e3:48:2f:
                    a2:34:36:04:bb:4e:45:89:89:c8:3e:5f:4f:b9:b3:
                    b9:76:e3:80:8a:2a:cb:8b:65:c0:73:f8:0c:3c:81:
                    84:de:74:9d:72:e7:8e:09:81:61:9c:27:ab:3f:13:
                    e3:c7:f0:26:5f:4e:43:19:1a:8d:e8:f5:63:d2:c7:
                    0d:b6:96:50:e6:b2:b2:b7:b3:c1:cc:eb:03:6f:b3:
                    7d:4f:64:eb:02:35:3d:e1:fd:89:a8:fc:13:e7:df:
                    3f:61:cb:95:73:24:72:c8:36:5d:13:af:00:5e:57:
                    e6:12:ec:a5:2b:6c:f6:32:fa:5f:ce:06:63:09:7f:
                    0b:78:9d:44:0f:41:26:bf:23:5d:82:e6:df:1c:75:
                    2e:59:19:34:cc:b3:9b:e2:68:fa:63:00:a1:ba:76:
                    96:74:f6:2d:a4:d6:eb:7c:fe:3e:e6:22:be:dd:ac:
                    08:65
                Exponent: 65537 (0x10001)
        X509v3 extensions:
            X509v3 Key Usage: critical
                Certificate Sign, CRL Sign
            X509v3 Basic Constraints: critical
                CA:TRUE, pathlen:0
            X509v3 Subject Key Identifier: 
                18:DA:92:3F:13:BE:31:0B:A9:49:02:BE:F4:BF:2C:3F:5B:71:8F:77
            X509v3 Authority Key Identifier: 
                keyid:66:AF:7A:D1:32:14:03:63:CD:D9:7E:DB:5D:43:E6:C1:06:F8:61:92

    Signature Algorithm: sha1WithRSAEncryption
         55:1c:9d:e4:31:d8:d4:f5:c4:d5:a9:84:2e:1c:62:7e:08:bb:
         3d:85:81:e4:3f:49:5b:ab:cd:1a:7d:ee:8c:82:95:25:6a:57:
         e5:28:25:8c:5f:bf:4a:78:cf:07:4a:c4:05:71:56:56:bb:b3:
         17:85:69:8c:6f:15:11:5d:58:40:46:72:a2:67:75:7f:2c:cf:
         72:58:ba:8c:e1:af:c2:ac:6a:2c:76:c1:56:8d:2e:ee:cb:66:
         d8:08:bc:61:c1:e3:7a:56:4d:50:3d:ed:da:c9:67:dc:c6:bb:
         82:9e:67:66:d8:82:6b:5c:d4:c5:35:97:df:2e:1e:71:6e:75:
         0d:89:90:4f:6a:c1:10:0d:0f:40:25:10:87:b0:f6:3f:ac:cb:
         fe:29:96:03:9a:e3:94:dd:21:1a:cd:2f:fc:98:c0:47:70:67:
         db:49:61:8f:ec:83:48:b4:7a:7a:d9:59:09:40:07:0b:b8:ef:
         9a:1c:08:ef:51:fe:23:ce:3e:a9:cb:01:f9:d2:94:94:0f:93:
         ae:e1:c2:ce:73:34:b5:21:8c:ff:ee:c8:40:60:f8:7e:a7:11:
         82:fa:ac:29:33:f0:54:d2:4b:a3:1f:7c:b8:3b:4f:7d:20:88:
         62:ec:01:76:94:1a:80:02:41:35:8a:d7:5f:ed:95:e7:1a:a2:
         ec:33:de:a7
-----BEGIN CERTIFICATE-----
MIIDzzCCAregAwIBAgIBAjANBgkqhkiG9w0BAQUFADB0MRMwEQYKCZImiZPyLGQB
GRYDb3JnMRYwFAYKCZImiZPyLGQBGRYGc2ltcGxlMRMwEQYDVQQKDApTaW1wbGUg
SW5jMRcwFQYDVQQLDA5TaW1wbGUgUm9vdCBDQTEXMBUGA1UEAwwOU2ltcGxlIFJv
b3QgQ0EwHhcNMjMxMjAyMjMwMzA5WhcNMzMxMjAxMjMwMzA5WjB6MRMwEQYKCZIm
iZPyLGQBGRYDb3JnMRYwFAYKCZImiZPyLGQBGRYGc2ltcGxlMRMwEQYDVQQKDApT
aW1wbGUgSW5jMRowGAYDVQQLDBFTaW1wbGUgU2lnbmluZyBDQTEaMBgGA1UEAwwR
U2ltcGxlIFNpZ25pbmcgQ0EwggEiMA0GCSqGSIb3DQEBAQUAA4IBDwAwggEKAoIB
AQDIwzacgYuuE5cRDL9s8gcHVUC+k2yph4j1I3rnuEhoOWN0PqlgUwEb5VVRYhUu
JP55Q4nZa6KmZziTX9Zlc/Cphc5WLGtOg/VNf+Um1i4wdMpag1JlbuNIL6I0NgS7
TkWJicg+X0+5s7l244CKKsuLZcBz+Aw8gYTedJ1y544JgWGcJ6s/E+PH8CZfTkMZ
Go3o9WPSxw22llDmsrK3s8HM6wNvs31PZOsCNT3h/Ymo/BPn3z9hy5VzJHLINl0T
rwBeV+YS7KUrbPYy+l/OBmMJfwt4nUQPQSa/I12C5t8cdS5ZGTTMs5viaPpjAKG6
dpZ09i2k1ut8/j7mIr7drAhlAgMBAAGjZjBkMA4GA1UdDwEB/wQEAwIBBjASBgNV
HRMBAf8ECDAGAQH/AgEAMB0GA1UdDgQWBBQY2pI/E74xC6lJAr70vyw/W3GPdzAf
BgNVHSMEGDAWgBRmr3rRMhQDY83ZfttdQ+bBBvhhkjANBgkqhkiG9w0BAQUFAAOC
AQEAVRyd5DHY1PXE1amELhxifgi7PYWB5D9JW6vNGn3ujIKVJWpX5SgljF+/SnjP
B0rEBXFWVruzF4VpjG8VEV1YQEZyomd1fyzPcli6jOGvwqxqLHbBVo0u7stm2Ai8
YcHjelZNUD3t2sln3Ma7gp5nZtiCa1zUxTWX3y4ecW51DYmQT2rBEA0PQCUQh7D2
P6zL/imWA5rjlN0hGs0v/JjAR3Bn20lhj+yDSLR6etlZCUAHC7jvmhwI71H+I84+
qcsB+dKUlA+TruHCznM0tSGM/+7IQGD4fqcRgvqsKTPwVNJLox98uDtPfSCIYuwB
dpQagAJBNYrXX+2V5xqi7DPepw==
-----END CERTIFICATE-----
