Certificate:
    Data:
        Version: 3 (0x2)
        Serial Number: 1 (0x1)
    Signature Algorithm: sha1WithRSAEncryption
        Issuer: DC=org, DC=simple, O=Simple Inc, OU=Simple Root CA, CN=Simple Root CA
        Validity
            Not Before: Dec  2 22:49:53 2023 GMT
            Not After : Dec  1 22:49:53 2033 GMT
        Subject: DC=org, DC=simple, O=Simple Inc, OU=Simple Root CA, CN=Simple Root CA
        Subject Public Key Info:
            Public Key Algorithm: rsaEncryption
                Public-Key: (2048 bit)
                Modulus:
                    00:c9:44:01:6a:fe:af:7c:0e:d9:99:4e:29:b4:1f:
                    4e:37:d2:44:3b:ed:e6:85:16:1c:ed:95:92:c3:f7:
                    a3:fc:2e:e0:20:31:b3:8f:44:0f:eb:18:34:a4:91:
                    5a:91:0e:18:87:1f:20:2e:74:d2:ec:92:89:4e:f8:
                    6b:1a:cc:3c:7b:65:02:82:33:7b:16:d6:a5:80:1d:
                    dc:e4:de:fc:11:30:89:0d:0a:cc:bf:82:9d:3a:17:
                    e8:af:ca:0d:82:a7:ee:34:61:25:a6:6a:8f:26:95:
                    d1:d3:66:26:d1:9b:7d:0e:ab:31:43:e3:03:d4:ab:
                    f5:21:e4:b9:6d:42:17:ab:fb:e0:9a:b4:4a:95:54:
                    6b:1d:33:0e:d1:10:2a:b6:26:56:b9:cd:e1:f7:e7:
                    a8:76:e9:ff:65:c5:d3:91:d5:4d:64:0d:a1:a0:42:
                    61:b7:dd:3e:06:4f:a3:44:4a:5b:a0:73:16:58:c4:
                    79:ad:08:44:fc:66:7b:4d:80:27:13:ef:e4:76:43:
                    15:03:8f:ee:47:b9:3f:0a:65:33:9f:94:78:78:94:
                    90:85:ac:fe:88:65:5b:34:33:9e:c7:25:a7:2b:26:
                    e7:59:d3:3a:86:9a:0e:26:60:fd:3b:0b:c4:7d:75:
                    49:ca:65:74:50:91:16:ae:bd:0f:22:27:ba:2a:61:
                    84:31
                Exponent: 65537 (0x10001)
        X509v3 extensions:
            X509v3 Key Usage: critical
                Certificate Sign, CRL Sign
            X509v3 Basic Constraints: critical
                CA:TRUE, pathlen:0
            X509v3 Subject Key Identifier: 
                66:AF:7A:D1:32:14:03:63:CD:D9:7E:DB:5D:43:E6:C1:06:F8:61:92
            X509v3 Authority Key Identifier: 
                keyid:66:AF:7A:D1:32:14:03:63:CD:D9:7E:DB:5D:43:E6:C1:06:F8:61:92

    Signature Algorithm: sha1WithRSAEncryption
         ba:3b:c9:e7:8d:d2:9e:da:18:3f:ac:9c:21:40:c8:6d:8b:63:
         4f:56:85:a1:af:e0:c4:3e:98:55:c3:6f:4f:78:d3:4c:0c:5e:
         87:84:60:05:e5:7e:c2:f9:02:2a:72:51:0b:a5:d2:da:c4:a7:
         c7:74:51:8b:12:8b:c8:cb:fd:00:e1:ca:98:5c:42:23:55:39:
         e9:c9:99:32:2a:02:a2:3f:37:00:df:af:f9:93:a7:d6:66:c7:
         0f:ea:df:6b:93:8d:ff:38:e9:ce:1e:41:84:70:64:e8:98:7b:
         d0:d5:b6:bc:20:3b:16:22:76:56:d8:cd:61:fa:43:da:d9:cc:
         45:df:ea:3a:5d:87:50:6a:8e:63:28:26:33:db:9a:0a:93:0b:
         e1:0c:84:9a:51:1c:79:ec:5e:79:d9:30:b6:09:51:11:ef:25:
         7e:90:dd:16:3e:c3:12:c1:8d:e7:90:ee:17:ad:e4:b2:43:cf:
         07:08:b4:09:99:8f:d1:6e:b8:14:d5:0a:dc:7a:b6:c6:4d:58:
         89:12:37:1a:0d:a2:81:eb:55:91:cd:32:33:8e:bc:e8:61:42:
         93:76:64:f8:ed:18:cf:7d:b3:be:cb:b7:2a:25:df:0b:3d:5c:
         e7:bc:d6:bb:92:8e:71:57:90:8e:ae:cf:3e:3a:ba:74:b3:05:
         d6:af:59:91
-----BEGIN CERTIFICATE-----
MIIDyTCCArGgAwIBAgIBATANBgkqhkiG9w0BAQUFADB0MRMwEQYKCZImiZPyLGQB
GRYDb3JnMRYwFAYKCZImiZPyLGQBGRYGc2ltcGxlMRMwEQYDVQQKDApTaW1wbGUg
SW5jMRcwFQYDVQQLDA5TaW1wbGUgUm9vdCBDQTEXMBUGA1UEAwwOU2ltcGxlIFJv
b3QgQ0EwHhcNMjMxMjAyMjI0OTUzWhcNMzMxMjAxMjI0OTUzWjB0MRMwEQYKCZIm
iZPyLGQBGRYDb3JnMRYwFAYKCZImiZPyLGQBGRYGc2ltcGxlMRMwEQYDVQQKDApT
aW1wbGUgSW5jMRcwFQYDVQQLDA5TaW1wbGUgUm9vdCBDQTEXMBUGA1UEAwwOU2lt
cGxlIFJvb3QgQ0EwggEiMA0GCSqGSIb3DQEBAQUAA4IBDwAwggEKAoIBAQDJRAFq
/q98DtmZTim0H0430kQ77eaFFhztlZLD96P8LuAgMbOPRA/rGDSkkVqRDhiHHyAu
dNLskolO+GsazDx7ZQKCM3sW1qWAHdzk3vwRMIkNCsy/gp06F+ivyg2Cp+40YSWm
ao8mldHTZibRm30OqzFD4wPUq/Uh5LltQher++CatEqVVGsdMw7RECq2Jla5zeH3
56h26f9lxdOR1U1kDaGgQmG33T4GT6NESlugcxZYxHmtCET8ZntNgCcT7+R2QxUD
j+5HuT8KZTOflHh4lJCFrP6IZVs0M57HJacrJudZ0zqGmg4mYP07C8R9dUnKZXRQ
kRauvQ8iJ7oqYYQxAgMBAAGjZjBkMA4GA1UdDwEB/wQEAwIBBjASBgNVHRMBAf8E
CDAGAQH/AgEAMB0GA1UdDgQWBBRmr3rRMhQDY83ZfttdQ+bBBvhhkjAfBgNVHSME
GDAWgBRmr3rRMhQDY83ZfttdQ+bBBvhhkjANBgkqhkiG9w0BAQUFAAOCAQEAujvJ
543SntoYP6ycIUDIbYtjT1aFoa/gxD6YVcNvT3jTTAxeh4RgBeV+wvkCKnJRC6XS
2sSnx3RRixKLyMv9AOHKmFxCI1U56cmZMioCoj83AN+v+ZOn1mbHD+rfa5ON/zjp
zh5BhHBk6Jh70NW2vCA7FiJ2VtjNYfpD2tnMRd/qOl2HUGqOYygmM9uaCpML4QyE
mlEceexeedkwtglREe8lfpDdFj7DEsGN55DuF63kskPPBwi0CZmP0W64FNUK3Hq2
xk1YiRI3Gg2igetVkc0yM4686GFCk3Zk+O0Yz32zvsu3KiXfCz1c57zWu5KOcVeQ
jq7PPjq6dLMF1q9ZkQ==
-----END CERTIFICATE-----
